target datalayout = "e-m:e-p270:32:32-p271:32:32-p272:64:64-i64:64-i128:128-f80:128-n8:16:32:64-S128"
target triple = "x86_64-pc-linux-gnu"

; Function Attrs: nounwind uwtable
define internal i64 @php_strspn_strcspn_common(ptr noundef %0, ptr noundef %1, ptr noundef %2, ptr noundef %3, i1 noundef zeroext %4) #0 {
  %6 = alloca i64, align 8
  %7 = alloca ptr, align 8
  %8 = alloca ptr, align 8
  %9 = alloca ptr, align 8
  %10 = alloca ptr, align 8
  %11 = alloca i8, align 1
  %12 = alloca ptr, align 8
  %13 = alloca [256 x i8], align 16
  %14 = alloca ptr, align 8
  store ptr %0, ptr %7, align 8, !tbaa !10
  store ptr %1, ptr %8, align 8, !tbaa !10
  store ptr %2, ptr %9, align 8, !tbaa !10
  store ptr %3, ptr %10, align 8, !tbaa !10
  %15 = zext i1 %4 to i8
  store i8 %15, ptr %11, align 1, !tbaa !19
  %16 = load ptr, ptr %10, align 8, !tbaa !10
  %17 = load ptr, ptr %8, align 8, !tbaa !10
  %18 = ptrtoint ptr %16 to i64
  %19 = ptrtoint ptr %17 to i64
  %20 = sub i64 %18, %19
  %21 = icmp eq i64 %20, 1
  br i1 %21, label %22, label %52

22:                                               ; preds = %5
  call void @llvm.lifetime.start.p0(i64 8, ptr %12) #22
  %23 = load ptr, ptr %7, align 8, !tbaa !10
  store ptr %23, ptr %12, align 8, !tbaa !10
  br label %24

24:                                               ; preds = %43, %22
  %25 = load ptr, ptr %12, align 8, !tbaa !10
  %26 = load ptr, ptr %9, align 8, !tbaa !10
  %27 = icmp ult ptr %25, %26
  br i1 %27, label %28, label %41

28:                                               ; preds = %24
  %29 = load ptr, ptr %12, align 8, !tbaa !10
  %30 = load i8, ptr %29, align 1, !tbaa !12
  %31 = sext i8 %30 to i32
  %32 = load ptr, ptr %8, align 8, !tbaa !10
  %33 = load i8, ptr %32, align 1, !tbaa !12
  %34 = sext i8 %33 to i32
  %35 = icmp eq i32 %31, %34
  %36 = zext i1 %35 to i32
  %37 = load i8, ptr %11, align 1, !tbaa !19, !range !21, !noundef !22
  %38 = trunc i8 %37 to i1
  %39 = zext i1 %38 to i32
  %40 = icmp eq i32 %36, %39
  br label %41

41:                                               ; preds = %28, %24
  %42 = phi i1 [ false, %24 ], [ %40, %28 ]
  br i1 %42, label %43, label %46

43:                                               ; preds = %41
  %44 = load ptr, ptr %12, align 8, !tbaa !10
  %45 = getelementptr inbounds nuw i8, ptr %44, i32 1
  store ptr %45, ptr %12, align 8, !tbaa !10
  br label %24

46:                                               ; preds = %41
  %47 = load ptr, ptr %12, align 8, !tbaa !10
  %48 = load ptr, ptr %7, align 8, !tbaa !10
  %49 = ptrtoint ptr %47 to i64
  %50 = ptrtoint ptr %48 to i64
  %51 = sub i64 %49, %50
  store i64 %51, ptr %6, align 8
  call void @llvm.lifetime.end.p0(i64 8, ptr %12) #22
  br label %100

52:                                               ; preds = %5
  call void @llvm.lifetime.start.p0(i64 256, ptr %13) #22
  %53 = getelementptr inbounds [256 x i8], ptr %13, i64 0, i64 0
  call void @llvm.memset.p0.i64(ptr align 16 %53, i8 0, i64 64, i1 false)
  %54 = getelementptr inbounds [256 x i8], ptr %13, i64 0, i64 0
  %55 = getelementptr inbounds i8, ptr %54, i64 64
  call void @llvm.memset.p0.i64(ptr align 1 %55, i8 0, i64 64, i1 false)
  %56 = getelementptr inbounds [256 x i8], ptr %13, i64 0, i64 0
  %57 = getelementptr inbounds i8, ptr %56, i64 128
  call void @llvm.memset.p0.i64(ptr align 1 %57, i8 0, i64 64, i1 false)
  %58 = getelementptr inbounds [256 x i8], ptr %13, i64 0, i64 0
  %59 = getelementptr inbounds i8, ptr %58, i64 192
  call void @llvm.memset.p0.i64(ptr align 1 %59, i8 0, i64 64, i1 false)
  br label %60

60:                                               ; preds = %64, %52
  %61 = load ptr, ptr %8, align 8, !tbaa !10
  %62 = load ptr, ptr %10, align 8, !tbaa !10
  %63 = icmp ult ptr %61, %62
  br i1 %63, label %64, label %71

64:                                               ; preds = %60
  %65 = load ptr, ptr %8, align 8, !tbaa !10
  %66 = load i8, ptr %65, align 1, !tbaa !12
  %67 = zext i8 %66 to i64
  %68 = getelementptr inbounds nuw [256 x i8], ptr %13, i64 0, i64 %67
  store i8 1, ptr %68, align 1, !tbaa !19
  %69 = load ptr, ptr %8, align 8, !tbaa !10
  %70 = getelementptr inbounds nuw i8, ptr %69, i32 1
  store ptr %70, ptr %8, align 8, !tbaa !10
  br label %60

71:                                               ; preds = %60
  call void @llvm.lifetime.start.p0(i64 8, ptr %14) #22
  %72 = load ptr, ptr %7, align 8, !tbaa !10
  store ptr %72, ptr %14, align 8, !tbaa !10
  br label %73

73:                                               ; preds = %91, %71
  %74 = load ptr, ptr %14, align 8, !tbaa !10
  %75 = load ptr, ptr %9, align 8, !tbaa !10
  %76 = icmp ult ptr %74, %75
  br i1 %76, label %77, label %89

77:                                               ; preds = %73
  %78 = load ptr, ptr %14, align 8, !tbaa !10
  %79 = load i8, ptr %78, align 1, !tbaa !12
  %80 = zext i8 %79 to i64
  %81 = getelementptr inbounds nuw [256 x i8], ptr %13, i64 0, i64 %80
  %82 = load i8, ptr %81, align 1, !tbaa !19, !range !21, !noundef !22
  %83 = trunc i8 %82 to i1
  %84 = zext i1 %83 to i32
  %85 = load i8, ptr %11, align 1, !tbaa !19, !range !21, !noundef !22
  %86 = trunc i8 %85 to i1
  %87 = zext i1 %86 to i32
  %88 = icmp eq i32 %84, %87
  br label %89

89:                                               ; preds = %77, %73
  %90 = phi i1 [ false, %73 ], [ %88, %77 ]
  br i1 %90, label %91, label %94

91:                                               ; preds = %89
  %92 = load ptr, ptr %14, align 8, !tbaa !10
  %93 = getelementptr inbounds nuw i8, ptr %92, i32 1
  store ptr %93, ptr %14, align 8, !tbaa !10
  br label %73

94:                                               ; preds = %89
  %95 = load ptr, ptr %14, align 8, !tbaa !10
  %96 = load ptr, ptr %7, align 8, !tbaa !10
  %97 = ptrtoint ptr %95 to i64
  %98 = ptrtoint ptr %96 to i64
  %99 = sub i64 %97, %98
  store i64 %99, ptr %6, align 8
  call void @llvm.lifetime.end.p0(i64 8, ptr %14) #22
  call void @llvm.lifetime.end.p0(i64 256, ptr %13) #22
  br label %100

100:                                              ; preds = %94, %46
  %101 = load i64, ptr %6, align 8
  ret i64 %101
}

; Function Attrs: nounwind uwtable
define dso_local i64 @php_strspn(ptr noundef %0, ptr noundef %1, ptr noundef %2, ptr noundef %3) #0 {
  %5 = alloca ptr, align 8
  %6 = alloca ptr, align 8
  %7 = alloca ptr, align 8
  %8 = alloca ptr, align 8
  store ptr %0, ptr %5, align 8, !tbaa !10
  store ptr %1, ptr %6, align 8, !tbaa !10
  store ptr %2, ptr %7, align 8, !tbaa !10
  store ptr %3, ptr %8, align 8, !tbaa !10
  %9 = load ptr, ptr %5, align 8, !tbaa !10
  %10 = load ptr, ptr %6, align 8, !tbaa !10
  %11 = load ptr, ptr %7, align 8, !tbaa !10
  %12 = load ptr, ptr %8, align 8, !tbaa !10
  %13 = call i64 @php_strspn_strcspn_common(ptr noundef %9, ptr noundef %10, ptr noundef %11, ptr noundef %12, i1 noundef zeroext true)
  ret i64 %13
}